target datalayout = "e-m:e-p270:32:32-p271:32:32-p272:64:64-i64:64-i128:128-f80:128-n8:16:32:64-S128"
target triple = "x86_64-pc-linux-gnu"

%struct._packet_info = type { ptr, ptr, i32, i32, %struct.nstime_t, %struct.nstime_t, %struct.nstime_t, i8, ptr, ptr, ptr, ptr, %struct._address, %struct._address, %struct._address, %struct._address, %struct._address, %struct._address, i32, ptr, i8, [3 x i8], %struct.anon, i32, i32, i32, i32, ptr, i8, ptr, ptr, i16, i16, i32, i32, i16, i32, i32, ptr, ptr, ptr, i8, i8, i16, i16, i16, i32, i16, i16, ptr, ptr, ptr, ptr, ptr, i32, i32 }
%struct.nstime_t = type { i64, i32 }
%struct._address = type { i32, i32, ptr, ptr }
%struct.anon = type { i8, [3 x i8] }

@proto_ICBAAccoMgt = internal global i32 0, align 4
@.str.231 = private unnamed_addr constant [4 x i8] c"tcp\00", align 1
@.str.232 = private unnamed_addr constant [113 x i8] c"(ip.src eq %s and ip.dst eq %s and cba.acco.dcom == 1) || (ip.src eq %s and ip.dst eq %s and cba.acco.dcom == 0)\00", align 1
@.str.233 = private unnamed_addr constant [111 x i8] c"(ip.src eq %s and ip.dst eq %s and cba.acco.srt == 1) || (ip.src eq %s and ip.dst eq %s and cba.acco.srt == 0)\00", align 1

; Function Attrs: null_pointer_is_valid sspstrong uwtable
define internal ptr @cba_build_filter(ptr noundef %0, ptr noundef %1) #0 {
  %3 = alloca ptr, align 8
  %4 = alloca ptr, align 8
  %5 = alloca ptr, align 8
  %6 = alloca i8, align 1
  %7 = alloca ptr, align 8
  %8 = alloca i32, align 4
  store ptr %0, ptr %4, align 8
  store ptr %1, ptr %5, align 8
  call void @llvm.lifetime.start.p0(i64 1, ptr %6) #12
  %9 = load ptr, ptr %4, align 8
  %10 = getelementptr inbounds nuw %struct._packet_info, ptr %9, i32 0, i32 39
  %11 = load ptr, ptr %10, align 8
  %12 = call zeroext i1 @proto_is_frame_protocol(ptr noundef %11, ptr noundef @.str.231)
  %13 = zext i1 %12 to i8
  store i8 %13, ptr %6, align 1
  call void @llvm.lifetime.start.p0(i64 8, ptr %7) #12
  %14 = load ptr, ptr %4, align 8
  %15 = getelementptr inbounds nuw %struct._packet_info, ptr %14, i32 0, i32 51
  %16 = load ptr, ptr %15, align 8
  %17 = load ptr, ptr %4, align 8
  %18 = load i32, ptr @proto_ICBAAccoMgt, align 4
  %19 = call ptr @p_get_proto_data(ptr noundef %16, ptr noundef %17, i32 noundef %18, i32 noundef 0)
  store ptr %19, ptr %7, align 8
  %20 = load ptr, ptr %4, align 8
  %21 = getelementptr inbounds nuw %struct._packet_info, ptr %20, i32 0, i32 14
  %22 = getelementptr inbounds nuw %struct._address, ptr %21, i32 0, i32 0
  %23 = load i32, ptr %22, align 8
  %24 = icmp eq i32 %23, 2
  br i1 %24, label %25, label %143

25:                                               ; preds = %2
  %26 = load ptr, ptr %4, align 8
  %27 = getelementptr inbounds nuw %struct._packet_info, ptr %26, i32 0, i32 15
  %28 = getelementptr inbounds nuw %struct._address, ptr %27, i32 0, i32 0
  %29 = load i32, ptr %28, align 8
  %30 = icmp eq i32 %29, 2
  br i1 %30, label %31, label %143

31:                                               ; preds = %25
  %32 = load i8, ptr %6, align 1, !range !9, !noundef !10
  %33 = trunc i8 %32 to i1
  br i1 %33, label %34, label %143

34:                                               ; preds = %31
  %35 = load ptr, ptr %7, align 8
  %36 = ptrtoint ptr %35 to i64
  %37 = trunc i64 %36 to i32
  switch i32 %37, label %142 [
    i32 1, label %38
    i32 2, label %64
    i32 3, label %90
    i32 4, label %116
  ]

38:                                               ; preds = %34
  %39 = load ptr, ptr %4, align 8
  %40 = getelementptr inbounds nuw %struct._packet_info, ptr %39, i32 0, i32 51
  %41 = load ptr, ptr %40, align 8
  %42 = load ptr, ptr %4, align 8
  %43 = getelementptr inbounds nuw %struct._packet_info, ptr %42, i32 0, i32 15
  %44 = call ptr @address_to_str(ptr noundef %41, ptr noundef %43)
  %45 = load ptr, ptr %4, align 8
  %46 = getelementptr inbounds nuw %struct._packet_info, ptr %45, i32 0, i32 51
  %47 = load ptr, ptr %46, align 8
  %48 = load ptr, ptr %4, align 8
  %49 = getelementptr inbounds nuw %struct._packet_info, ptr %48, i32 0, i32 14
  %50 = call ptr @address_to_str(ptr noundef %47, ptr noundef %49)
  %51 = load ptr, ptr %4, align 8
  %52 = getelementptr inbounds nuw %struct._packet_info, ptr %51, i32 0, i32 51
  %53 = load ptr, ptr %52, align 8
  %54 = load ptr, ptr %4, align 8
  %55 = getelementptr inbounds nuw %struct._packet_info, ptr %54, i32 0, i32 14
  %56 = call ptr @address_to_str(ptr noundef %53, ptr noundef %55)
  %57 = load ptr, ptr %4, align 8
  %58 = getelementptr inbounds nuw %struct._packet_info, ptr %57, i32 0, i32 51
  %59 = load ptr, ptr %58, align 8
  %60 = load ptr, ptr %4, align 8
  %61 = getelementptr inbounds nuw %struct._packet_info, ptr %60, i32 0, i32 15
  %62 = call ptr @address_to_str(ptr noundef %59, ptr noundef %61)
  %63 = call noalias ptr (ptr, ptr, ...) @wmem_strdup_printf(ptr noundef null, ptr noundef @.str.232, ptr noundef %44, ptr noundef %50, ptr noundef %56, ptr noundef %62)
  store ptr %63, ptr %3, align 8
  store i32 1, ptr %8, align 4
  br label %144

64:                                               ; preds = %34
  %65 = load ptr, ptr %4, align 8
  %66 = getelementptr inbounds nuw %struct._packet_info, ptr %65, i32 0, i32 51
  %67 = load ptr, ptr %66, align 8
  %68 = load ptr, ptr %4, align 8
  %69 = getelementptr inbounds nuw %struct._packet_info, ptr %68, i32 0, i32 14
  %70 = call ptr @address_to_str(ptr noundef %67, ptr noundef %69)
  %71 = load ptr, ptr %4, align 8
  %72 = getelementptr inbounds nuw %struct._packet_info, ptr %71, i32 0, i32 51
  %73 = load ptr, ptr %72, align 8
  %74 = load ptr, ptr %4, align 8
  %75 = getelementptr inbounds nuw %struct._packet_info, ptr %74, i32 0, i32 15
  %76 = call ptr @address_to_str(ptr noundef %73, ptr noundef %75)
  %77 = load ptr, ptr %4, align 8
  %78 = getelementptr inbounds nuw %struct._packet_info, ptr %77, i32 0, i32 51
  %79 = load ptr, ptr %78, align 8
  %80 = load ptr, ptr %4, align 8
  %81 = getelementptr inbounds nuw %struct._packet_info, ptr %80, i32 0, i32 15
  %82 = call ptr @address_to_str(ptr noundef %79, ptr noundef %81)
  %83 = load ptr, ptr %4, align 8
  %84 = getelementptr inbounds nuw %struct._packet_info, ptr %83, i32 0, i32 51
  %85 = load ptr, ptr %84, align 8
  %86 = load ptr, ptr %4, align 8
  %87 = getelementptr inbounds nuw %struct._packet_info, ptr %86, i32 0, i32 14
  %88 = call ptr @address_to_str(ptr noundef %85, ptr noundef %87)
  %89 = call noalias ptr (ptr, ptr, ...) @wmem_strdup_printf(ptr noundef null, ptr noundef @.str.232, ptr noundef %70, ptr noundef %76, ptr noundef %82, ptr noundef %88)
  store ptr %89, ptr %3, align 8
  store i32 1, ptr %8, align 4
  br label %144

90:                                               ; preds = %34
  %91 = load ptr, ptr %4, align 8
  %92 = getelementptr inbounds nuw %struct._packet_info, ptr %91, i32 0, i32 51
  %93 = load ptr, ptr %92, align 8
  %94 = load ptr, ptr %4, align 8
  %95 = getelementptr inbounds nuw %struct._packet_info, ptr %94, i32 0, i32 15
  %96 = call ptr @address_to_str(ptr noundef %93, ptr noundef %95)
  %97 = load ptr, ptr %4, align 8
  %98 = getelementptr inbounds nuw %struct._packet_info, ptr %97, i32 0, i32 51
  %99 = load ptr, ptr %98, align 8
  %100 = load ptr, ptr %4, align 8
  %101 = getelementptr inbounds nuw %struct._packet_info, ptr %100, i32 0, i32 14
  %102 = call ptr @address_to_str(ptr noundef %99, ptr noundef %101)
  %103 = load ptr, ptr %4, align 8
  %104 = getelementptr inbounds nuw %struct._packet_info, ptr %103, i32 0, i32 51
  %105 = load ptr, ptr %104, align 8
  %106 = load ptr, ptr %4, align 8
  %107 = getelementptr inbounds nuw %struct._packet_info, ptr %106, i32 0, i32 14
  %108 = call ptr @address_to_str(ptr noundef %105, ptr noundef %107)
  %109 = load ptr, ptr %4, align 8
  %110 = getelementptr inbounds nuw %struct._packet_info, ptr %109, i32 0, i32 51
  %111 = load ptr, ptr %110, align 8
  %112 = load ptr, ptr %4, align 8
  %113 = getelementptr inbounds nuw %struct._packet_info, ptr %112, i32 0, i32 15
  %114 = call ptr @address_to_str(ptr noundef %111, ptr noundef %113)
  %115 = call noalias ptr (ptr, ptr, ...) @wmem_strdup_printf(ptr noundef null, ptr noundef @.str.233, ptr noundef %96, ptr noundef %102, ptr noundef %108, ptr noundef %114)
  store ptr %115, ptr %3, align 8
  store i32 1, ptr %8, align 4
  br label %144

116:                                              ; preds = %34
  %117 = load ptr, ptr %4, align 8
  %118 = getelementptr inbounds nuw %struct._packet_info, ptr %117, i32 0, i32 51
  %119 = load ptr, ptr %118, align 8
  %120 = load ptr, ptr %4, align 8
  %121 = getelementptr inbounds nuw %struct._packet_info, ptr %120, i32 0, i32 14
  %122 = call ptr @address_to_str(ptr noundef %119, ptr noundef %121)
  %123 = load ptr, ptr %4, align 8
  %124 = getelementptr inbounds nuw %struct._packet_info, ptr %123, i32 0, i32 51
  %125 = load ptr, ptr %124, align 8
  %126 = load ptr, ptr %4, align 8
  %127 = getelementptr inbounds nuw %struct._packet_info, ptr %126, i32 0, i32 15
  %128 = call ptr @address_to_str(ptr noundef %125, ptr noundef %127)
  %129 = load ptr, ptr %4, align 8
  %130 = getelementptr inbounds nuw %struct._packet_info, ptr %129, i32 0, i32 51
  %131 = load ptr, ptr %130, align 8
  %132 = load ptr, ptr %4, align 8
  %133 = getelementptr inbounds nuw %struct._packet_info, ptr %132, i32 0, i32 15
  %134 = call ptr @address_to_str(ptr noundef %131, ptr noundef %133)
  %135 = load ptr, ptr %4, align 8
  %136 = getelementptr inbounds nuw %struct._packet_info, ptr %135, i32 0, i32 51
  %137 = load ptr, ptr %136, align 8
  %138 = load ptr, ptr %4, align 8
  %139 = getelementptr inbounds nuw %struct._packet_info, ptr %138, i32 0, i32 14
  %140 = call ptr @address_to_str(ptr noundef %137, ptr noundef %139)
  %141 = call noalias ptr (ptr, ptr, ...) @wmem_strdup_printf(ptr noundef null, ptr noundef @.str.233, ptr noundef %122, ptr noundef %128, ptr noundef %134, ptr noundef %140)
  store ptr %141, ptr %3, align 8
  store i32 1, ptr %8, align 4
  br label %144

142:                                              ; preds = %34
  store ptr null, ptr %3, align 8
  store i32 1, ptr %8, align 4
  br label %144

143:                                              ; preds = %31, %25, %2
  store ptr null, ptr %3, align 8
  store i32 1, ptr %8, align 4
  br label %144

144:                                              ; preds = %143, %142, %116, %90, %64, %38
  call void @llvm.lifetime.end.p0(i64 8, ptr %7) #12
  call void @llvm.lifetime.end.p0(i64 1, ptr %6) #12
  %145 = load ptr, ptr %3, align 8
  ret ptr %145
}