; Function Attrs: null_pointer_is_valid sspstrong uwtable
define internal noalias ptr @cba_build_filter(ptr noundef %0, ptr readnone captures(none) %1) #0 {
  %3 = getelementptr inbounds nuw i8, ptr %0, i64 360
  %4 = load ptr, ptr %3, align 8
  %5 = tail call zeroext i1 @proto_is_frame_protocol(ptr noundef %4, ptr noundef nonnull @.str.231)
  %6 = getelementptr inbounds nuw i8, ptr %0, i64 408
  %7 = load ptr, ptr %6, align 8
  %8 = load i32, ptr @proto_ICBAAccoMgt, align 4
  %9 = tail call ptr @p_get_proto_data(ptr noundef %7, ptr noundef %0, i32 noundef %8, i32 noundef 0)
  %10 = getelementptr inbounds nuw i8, ptr %0, i64 160
  %11 = load i32, ptr %10, align 8
  %12 = icmp eq i32 %11, 2
  br i1 %12, label %13, label %32

13:                                               ; preds = %2
  %14 = getelementptr inbounds nuw i8, ptr %0, i64 184
  %15 = load i32, ptr %14, align 8
  %16 = icmp eq i32 %15, 2
  %brmerge.not = select i1 %16, i1 %5, i1 false
  br i1 %brmerge.not, label %17, label %32

17:                                               ; preds = %13
  %18 = ptrtoint ptr %9 to i64
  %19 = trunc i64 %18 to i32
  switch i32 %19, label %32 [
    i32 1, label %.sink.split
    i32 2, label %20
    i32 3, label %21
    i32 4, label %22
  ]

20:                                               ; preds = %17
  br label %.sink.split

21:                                               ; preds = %17
  br label %.sink.split

22:                                               ; preds = %17
  br label %.sink.split

.sink.split:                                      ; preds = %17, %20, %21, %22
  %.sink50 = phi ptr [ %10, %22 ], [ %14, %21 ], [ %10, %20 ], [ %14, %17 ]
  %.sink48 = phi ptr [ %14, %22 ], [ %10, %21 ], [ %14, %20 ], [ %10, %17 ]
  %.str.233.sink = phi ptr [ @.str.233, %22 ], [ @.str.233, %21 ], [ @.str.232, %20 ], [ @.str.232, %17 ]
  %23 = load ptr, ptr %6, align 8
  %24 = tail call ptr @address_to_str(ptr noundef %23, ptr noundef nonnull %.sink50)
  %25 = load ptr, ptr %6, align 8
  %26 = tail call ptr @address_to_str(ptr noundef %25, ptr noundef nonnull %.sink48)
  %27 = load ptr, ptr %6, align 8
  %28 = tail call ptr @address_to_str(ptr noundef %27, ptr noundef nonnull %.sink48)
  %29 = load ptr, ptr %6, align 8
  %30 = tail call ptr @address_to_str(ptr noundef %29, ptr noundef nonnull %.sink50)
  %31 = tail call noalias ptr (ptr, ptr, ...) @wmem_strdup_printf(ptr noundef null, ptr noundef nonnull %.str.233.sink, ptr noundef %24, ptr noundef %26, ptr noundef %28, ptr noundef %30)
  br label %32

32:                                               ; preds = %.sink.split, %2, %13, %17
  %.0 = phi ptr [ null, %17 ], [ null, %13 ], [ null, %2 ], [ %31, %.sink.split ]
  ret ptr %.0
}